target datalayout = "e-m:e-p270:32:32-p271:32:32-p272:64:64-i64:64-i128:128-f80:128-n8:16:32:64-S128"
target triple = "x86_64-pc-linux-gnu"

%struct.nghttp2_frame_hd = type { i64, i32, i8, i8, i8 }
%struct.nghttp2_headers = type { %struct.nghttp2_frame_hd, i64, %struct.nghttp2_priority_spec, ptr, i64, i32 }
%struct.nghttp2_priority_spec = type { i32, i32, i8 }
%struct.nghttp2_bufs = type { ptr, ptr, ptr, i64, i64, i64, i64, i64 }
%struct.nghttp2_buf_chain = type { ptr, %struct.nghttp2_buf }
%struct.nghttp2_buf = type { ptr, ptr, ptr, ptr, ptr }

@.str = private unnamed_addr constant [24 x i8] c"bufs->head == bufs->cur\00", align 1
@.str.1 = private unnamed_addr constant [113 x i8] c"generated/home/dtcxzyw/WorkSpace/Projects/compilers/llvm-opt-benchmark/bench/nghttp2/nghttp2/lib/nghttp2_frame.c\00", align 1
@__PRETTY_FUNCTION__.nghttp2_frame_pack_headers = private unnamed_addr constant [89 x i8] c"int nghttp2_frame_pack_headers(nghttp2_bufs *, nghttp2_headers *, nghttp2_hd_deflater *)\00", align 1

; Function Attrs: nounwind uwtable
define hidden i64 @nghttp2_frame_priority_len(i8 noundef zeroext %0) #0 {
  %2 = alloca i64, align 8
  %3 = alloca i8, align 1
  store i8 %0, ptr %3, align 1, !tbaa !14
  %4 = load i8, ptr %3, align 1, !tbaa !14
  %5 = zext i8 %4 to i32
  %6 = and i32 %5, 32
  %7 = icmp ne i32 %6, 0
  br i1 %7, label %8, label %9

8:                                                ; preds = %1
  store i64 5, ptr %2, align 8
  br label %10

9:                                                ; preds = %1
  store i64 0, ptr %2, align 8
  br label %10

10:                                               ; preds = %9, %8
  %11 = load i64, ptr %2, align 8
  ret i64 %11
}

; Function Attrs: nounwind uwtable
define hidden void @nghttp2_frame_pack_priority_spec(ptr noundef %0, ptr noundef %1) #0 {
  %3 = alloca ptr, align 8
  %4 = alloca ptr, align 8
  store ptr %0, ptr %3, align 8, !tbaa !3
  store ptr %1, ptr %4, align 8, !tbaa !8
  %5 = load ptr, ptr %3, align 8, !tbaa !3
  %6 = load ptr, ptr %4, align 8, !tbaa !8
  %7 = getelementptr inbounds nuw %struct.nghttp2_priority_spec, ptr %6, i32 0, i32 0
  %8 = load i32, ptr %7, align 4, !tbaa !78
  call void @nghttp2_put_uint32be(ptr noundef %5, i32 noundef %8)
  %9 = load ptr, ptr %4, align 8, !tbaa !8
  %10 = getelementptr inbounds nuw %struct.nghttp2_priority_spec, ptr %9, i32 0, i32 2
  %11 = load i8, ptr %10, align 4, !tbaa !79
  %12 = icmp ne i8 %11, 0
  br i1 %12, label %13, label %20

13:                                               ; preds = %2
  %14 = load ptr, ptr %3, align 8, !tbaa !3
  %15 = getelementptr inbounds i8, ptr %14, i64 0
  %16 = load i8, ptr %15, align 1, !tbaa !14
  %17 = zext i8 %16 to i32
  %18 = or i32 %17, 128
  %19 = trunc i32 %18 to i8
  store i8 %19, ptr %15, align 1, !tbaa !14
  br label %20

20:                                               ; preds = %13, %2
  %21 = load ptr, ptr %4, align 8, !tbaa !8
  %22 = getelementptr inbounds nuw %struct.nghttp2_priority_spec, ptr %21, i32 0, i32 1
  %23 = load i32, ptr %22, align 4, !tbaa !80
  %24 = sub nsw i32 %23, 1
  %25 = trunc i32 %24 to i8
  %26 = load ptr, ptr %3, align 8, !tbaa !3
  %27 = getelementptr inbounds i8, ptr %26, i64 4
  store i8 %25, ptr %27, align 1, !tbaa !14
  ret void
}

; Function Attrs: nounwind uwtable
define hidden i64 @nghttp2_frame_headers_payload_nv_offset(ptr noundef %0) #0 {
  %2 = alloca ptr, align 8
  store ptr %0, ptr %2, align 8, !tbaa !8
  %3 = load ptr, ptr %2, align 8, !tbaa !8
  %4 = getelementptr inbounds nuw %struct.nghttp2_headers, ptr %3, i32 0, i32 0
  %5 = getelementptr inbounds nuw %struct.nghttp2_frame_hd, ptr %4, i32 0, i32 3
  %6 = load i8, ptr %5, align 1, !tbaa !67
  %7 = call i64 @nghttp2_frame_priority_len(i8 noundef zeroext %6)
  ret i64 %7
}

; Function Attrs: nounwind uwtable
define hidden i32 @nghttp2_frame_pack_headers(ptr noundef %0, ptr noundef %1, ptr noundef %2) #0 {
  %4 = alloca i32, align 4
  %5 = alloca ptr, align 8
  %6 = alloca ptr, align 8
  %7 = alloca ptr, align 8
  %8 = alloca i64, align 8
  %9 = alloca i32, align 4
  %10 = alloca ptr, align 8
  %11 = alloca i32, align 4
  store ptr %0, ptr %5, align 8, !tbaa !8
  store ptr %1, ptr %6, align 8, !tbaa !8
  store ptr %2, ptr %7, align 8, !tbaa !68
  call void @llvm.lifetime.start.p0(i64 8, ptr %8) #7
  call void @llvm.lifetime.start.p0(i64 4, ptr %9) #7
  call void @llvm.lifetime.start.p0(i64 8, ptr %10) #7
  %12 = load ptr, ptr %5, align 8, !tbaa !8
  %13 = getelementptr inbounds nuw %struct.nghttp2_bufs, ptr %12, i32 0, i32 0
  %14 = load ptr, ptr %13, align 8, !tbaa !70
  %15 = load ptr, ptr %5, align 8, !tbaa !8
  %16 = getelementptr inbounds nuw %struct.nghttp2_bufs, ptr %15, i32 0, i32 1
  %17 = load ptr, ptr %16, align 8, !tbaa !73
  %18 = icmp eq ptr %14, %17
  br i1 %18, label %19, label %20

19:                                               ; preds = %3
  br label %21

20:                                               ; preds = %3
  call void @__assert_fail(ptr noundef @.str, ptr noundef @.str.1, i32 noundef 367, ptr noundef @__PRETTY_FUNCTION__.nghttp2_frame_pack_headers) #8
  unreachable

21:                                               ; preds = %19
  %22 = load ptr, ptr %6, align 8, !tbaa !8
  %23 = call i64 @nghttp2_frame_headers_payload_nv_offset(ptr noundef %22)
  store i64 %23, ptr %8, align 8, !tbaa !18
  %24 = load ptr, ptr %5, align 8, !tbaa !8
  %25 = getelementptr inbounds nuw %struct.nghttp2_bufs, ptr %24, i32 0, i32 1
  %26 = load ptr, ptr %25, align 8, !tbaa !73
  %27 = getelementptr inbounds nuw %struct.nghttp2_buf_chain, ptr %26, i32 0, i32 1
  store ptr %27, ptr %10, align 8, !tbaa !8
  %28 = load i64, ptr %8, align 8, !tbaa !18
  %29 = load ptr, ptr %10, align 8, !tbaa !8
  %30 = getelementptr inbounds nuw %struct.nghttp2_buf, ptr %29, i32 0, i32 2
  %31 = load ptr, ptr %30, align 8, !tbaa !74
  %32 = getelementptr inbounds nuw i8, ptr %31, i64 %28
  store ptr %32, ptr %30, align 8, !tbaa !74
  %33 = load ptr, ptr %10, align 8, !tbaa !8
  %34 = getelementptr inbounds nuw %struct.nghttp2_buf, ptr %33, i32 0, i32 2
  %35 = load ptr, ptr %34, align 8, !tbaa !74
  %36 = load ptr, ptr %10, align 8, !tbaa !8
  %37 = getelementptr inbounds nuw %struct.nghttp2_buf, ptr %36, i32 0, i32 3
  store ptr %35, ptr %37, align 8, !tbaa !76
  %38 = load ptr, ptr %7, align 8, !tbaa !68
  %39 = load ptr, ptr %5, align 8, !tbaa !8
  %40 = load ptr, ptr %6, align 8, !tbaa !8
  %41 = getelementptr inbounds nuw %struct.nghttp2_headers, ptr %40, i32 0, i32 3
  %42 = load ptr, ptr %41, align 8, !tbaa !23
  %43 = load ptr, ptr %6, align 8, !tbaa !8
  %44 = getelementptr inbounds nuw %struct.nghttp2_headers, ptr %43, i32 0, i32 4
  %45 = load i64, ptr %44, align 8, !tbaa !24
  %46 = call i32 @nghttp2_hd_deflate_hd_bufs(ptr noundef %38, ptr noundef %39, ptr noundef %42, i64 noundef %45)
  store i32 %46, ptr %9, align 4, !tbaa !19
  %47 = load i32, ptr %9, align 4, !tbaa !19
  %48 = icmp eq i32 %47, -502
  br i1 %48, label %49, label %50

49:                                               ; preds = %21
  store i32 -523, ptr %9, align 4, !tbaa !19
  br label %50

50:                                               ; preds = %49, %21
  %51 = load i64, ptr %8, align 8, !tbaa !18
  %52 = load ptr, ptr %10, align 8, !tbaa !8
  %53 = getelementptr inbounds nuw %struct.nghttp2_buf, ptr %52, i32 0, i32 2
  %54 = load ptr, ptr %53, align 8, !tbaa !74
  %55 = sub i64 0, %51
  %56 = getelementptr inbounds i8, ptr %54, i64 %55
  store ptr %56, ptr %53, align 8, !tbaa !74
  %57 = load i32, ptr %9, align 4, !tbaa !19
  %58 = icmp ne i32 %57, 0
  br i1 %58, label %59, label %61

59:                                               ; preds = %50
  %60 = load i32, ptr %9, align 4, !tbaa !19
  store i32 %60, ptr %4, align 4
  store i32 1, ptr %11, align 4
  br label %87

61:                                               ; preds = %50
  %62 = load ptr, ptr %6, align 8, !tbaa !8
  %63 = getelementptr inbounds nuw %struct.nghttp2_headers, ptr %62, i32 0, i32 0
  %64 = getelementptr inbounds nuw %struct.nghttp2_frame_hd, ptr %63, i32 0, i32 3
  %65 = load i8, ptr %64, align 1, !tbaa !67
  %66 = zext i8 %65 to i32
  %67 = and i32 %66, 32
  %68 = icmp ne i32 %67, 0
  br i1 %68, label %69, label %75

69:                                               ; preds = %61
  %70 = load ptr, ptr %10, align 8, !tbaa !8
  %71 = getelementptr inbounds nuw %struct.nghttp2_buf, ptr %70, i32 0, i32 2
  %72 = load ptr, ptr %71, align 8, !tbaa !74
  %73 = load ptr, ptr %6, align 8, !tbaa !8
  %74 = getelementptr inbounds nuw %struct.nghttp2_headers, ptr %73, i32 0, i32 2
  call void @nghttp2_frame_pack_priority_spec(ptr noundef %72, ptr noundef %74)
  br label %75

75:                                               ; preds = %69, %61
  %76 = load ptr, ptr %6, align 8, !tbaa !8
  %77 = getelementptr inbounds nuw %struct.nghttp2_headers, ptr %76, i32 0, i32 1
  store i64 0, ptr %77, align 8, !tbaa !20
  %78 = load ptr, ptr %5, align 8, !tbaa !8
  %79 = call i64 @nghttp2_bufs_len(ptr noundef %78)
  %80 = load ptr, ptr %6, align 8, !tbaa !8
  %81 = getelementptr inbounds nuw %struct.nghttp2_headers, ptr %80, i32 0, i32 0
  %82 = getelementptr inbounds nuw %struct.nghttp2_frame_hd, ptr %81, i32 0, i32 0
  store i64 %79, ptr %82, align 8, !tbaa !77
  %83 = load ptr, ptr %5, align 8, !tbaa !8
  %84 = load ptr, ptr %6, align 8, !tbaa !8
  %85 = getelementptr inbounds nuw %struct.nghttp2_headers, ptr %84, i32 0, i32 0
  %86 = call i32 @frame_pack_headers_shared(ptr noundef %83, ptr noundef %85)
  store i32 %86, ptr %4, align 4
  store i32 1, ptr %11, align 4
  br label %87

87:                                               ; preds = %75, %59
  call void @llvm.lifetime.end.p0(i64 8, ptr %10) #7
  call void @llvm.lifetime.end.p0(i64 4, ptr %9) #7
  call void @llvm.lifetime.end.p0(i64 8, ptr %8) #7
  %88 = load i32, ptr %4, align 4
  ret i32 %88
}