; Function Attrs: nounwind uwtable
define hidden i32 @nghttp2_frame_pack_headers(ptr noundef %0, ptr noundef captures(none) %1, ptr noundef %2) local_unnamed_addr #0 {
  %4 = load ptr, ptr %0, align 8, !tbaa !65
  %5 = getelementptr inbounds nuw i8, ptr %0, i64 8
  %6 = load ptr, ptr %5, align 8, !tbaa !68
  %7 = icmp eq ptr %4, %6
  br i1 %7, label %9, label %8

8:                                                ; preds = %3
  tail call void @__assert_fail(ptr noundef nonnull @.str, ptr noundef nonnull @.str.1, i32 noundef 367, ptr noundef nonnull @__PRETTY_FUNCTION__.nghttp2_frame_pack_headers) #19
  unreachable

9:                                                ; preds = %3
  %10 = getelementptr inbounds nuw i8, ptr %1, i64 13
  %11 = load i8, ptr %10, align 1, !tbaa !64
  %12 = and i8 %11, 32
  %.not.i.i = icmp eq i8 %12, 0
  %..i.i.neg = select i1 %.not.i.i, i64 0, i64 -5
  %..i.i = select i1 %.not.i.i, i64 0, i64 5
  %13 = getelementptr inbounds nuw i8, ptr %6, i64 24
  %14 = load ptr, ptr %13, align 8, !tbaa !69
  %15 = getelementptr inbounds nuw i8, ptr %14, i64 %..i.i
  store ptr %15, ptr %13, align 8, !tbaa !69
  %16 = getelementptr inbounds nuw i8, ptr %6, i64 32
  store ptr %15, ptr %16, align 8, !tbaa !71
  %17 = getelementptr inbounds nuw i8, ptr %1, i64 40
  %18 = load ptr, ptr %17, align 8, !tbaa !18
  %19 = getelementptr inbounds nuw i8, ptr %1, i64 48
  %20 = load i64, ptr %19, align 8, !tbaa !19
  %21 = tail call i32 @nghttp2_hd_deflate_hd_bufs(ptr noundef %2, ptr noundef nonnull %0, ptr noundef %18, i64 noundef %20) #18
  %22 = icmp eq i32 %21, -502
  %spec.store.select = select i1 %22, i32 -523, i32 %21
  %23 = load ptr, ptr %13, align 8, !tbaa !69
  %24 = getelementptr inbounds i8, ptr %23, i64 %..i.i.neg
  store ptr %24, ptr %13, align 8, !tbaa !69
  %.not = icmp eq i32 %spec.store.select, 0
  br i1 %.not, label %25, label %44

25:                                               ; preds = %9
  %26 = load i8, ptr %10, align 1, !tbaa !64
  %27 = and i8 %26, 32
  %.not25 = icmp eq i8 %27, 0
  br i1 %.not25, label %41, label %28

28:                                               ; preds = %25
  %29 = getelementptr inbounds nuw i8, ptr %1, i64 24
  %30 = load i32, ptr %29, align 4, !tbaa !72
  tail call void @nghttp2_put_uint32be(ptr noundef %24, i32 noundef %30) #18
  %31 = getelementptr inbounds nuw i8, ptr %1, i64 32
  %32 = load i8, ptr %31, align 4, !tbaa !73
  %.not.i = icmp eq i8 %32, 0
  br i1 %.not.i, label %nghttp2_frame_pack_priority_spec.exit, label %33

33:                                               ; preds = %28
  %34 = load i8, ptr %24, align 1, !tbaa !10
  %35 = or i8 %34, -128
  store i8 %35, ptr %24, align 1, !tbaa !10
  br label %nghttp2_frame_pack_priority_spec.exit

nghttp2_frame_pack_priority_spec.exit:            ; preds = %28, %33
  %36 = getelementptr inbounds nuw i8, ptr %1, i64 28
  %37 = load i32, ptr %36, align 4, !tbaa !74
  %38 = trunc i32 %37 to i8
  %39 = add i8 %38, -1
  %40 = getelementptr inbounds nuw i8, ptr %24, i64 4
  store i8 %39, ptr %40, align 1, !tbaa !10
  br label %41

41:                                               ; preds = %nghttp2_frame_pack_priority_spec.exit, %25
  %42 = getelementptr inbounds nuw i8, ptr %1, i64 16
  store i64 0, ptr %42, align 8, !tbaa !14
  %43 = tail call i64 @nghttp2_bufs_len(ptr noundef nonnull %0) #18
  store i64 %43, ptr %1, align 8, !tbaa !75
  tail call fastcc void @frame_pack_headers_shared(ptr noundef nonnull %0, ptr noundef nonnull %1)
  br label %44

44:                                               ; preds = %9, %41
  ret i32 %spec.store.select
}